target datalayout = "e-m:e-p270:32:32-p271:32:32-p272:64:64-i64:64-i128:128-f80:128-n8:16:32:64-S128"
target triple = "x86_64-pc-linux-gnu"

%struct.asn1_string_st = type { i32, i32, ptr, i64 }
%struct.X509_name_st = type { ptr, i32, ptr, ptr, i32 }
%struct.X509_name_entry_st = type { ptr, ptr, i32, i32 }

; Function Attrs: inlinehint nounwind uwtable
define internal ptr @ossl_check_const_X509_NAME_ENTRY_sk_type(ptr noundef %0) #4 {
  %2 = alloca ptr, align 8
  store ptr %0, ptr %2, align 8, !tbaa !25
  %3 = load ptr, ptr %2, align 8, !tbaa !25
  ret ptr %3
}

; Function Attrs: nounwind uwtable
define ptr @X509_NAME_ENTRY_get_data(ptr noundef %0) #0 {
  %2 = alloca ptr, align 8
  %3 = alloca ptr, align 8
  store ptr %0, ptr %3, align 8, !tbaa !26
  %4 = load ptr, ptr %3, align 8, !tbaa !26
  %5 = icmp eq ptr %4, null
  br i1 %5, label %6, label %7

6:                                                ; preds = %1
  store ptr null, ptr %2, align 8
  br label %11

7:                                                ; preds = %1
  %8 = load ptr, ptr %3, align 8, !tbaa !26
  %9 = getelementptr inbounds nuw %struct.X509_name_entry_st, ptr %8, i32 0, i32 1
  %10 = load ptr, ptr %9, align 8, !tbaa !32
  store ptr %10, ptr %2, align 8
  br label %11

11:                                               ; preds = %7, %6
  %12 = load ptr, ptr %2, align 8
  ret ptr %12
}

; Function Attrs: nounwind uwtable
define ptr @X509_NAME_get_entry(ptr noundef %0, i32 noundef %1) #0 {
  %3 = alloca ptr, align 8
  %4 = alloca ptr, align 8
  %5 = alloca i32, align 4
  store ptr %0, ptr %4, align 8, !tbaa !3
  store i32 %1, ptr %5, align 4, !tbaa !8
  %6 = load ptr, ptr %4, align 8, !tbaa !3
  %7 = icmp eq ptr %6, null
  br i1 %7, label %19, label %8

8:                                                ; preds = %2
  %9 = load ptr, ptr %4, align 8, !tbaa !3
  %10 = getelementptr inbounds nuw %struct.X509_name_st, ptr %9, i32 0, i32 0
  %11 = load ptr, ptr %10, align 8, !tbaa !21
  %12 = call ptr @ossl_check_const_X509_NAME_ENTRY_sk_type(ptr noundef %11)
  %13 = call i32 @OPENSSL_sk_num(ptr noundef %12)
  %14 = load i32, ptr %5, align 4, !tbaa !8
  %15 = icmp sle i32 %13, %14
  br i1 %15, label %19, label %16

16:                                               ; preds = %8
  %17 = load i32, ptr %5, align 4, !tbaa !8
  %18 = icmp slt i32 %17, 0
  br i1 %18, label %19, label %20

19:                                               ; preds = %16, %8, %2
  store ptr null, ptr %3, align 8
  br label %27

20:                                               ; preds = %16
  %21 = load ptr, ptr %4, align 8, !tbaa !3
  %22 = getelementptr inbounds nuw %struct.X509_name_st, ptr %21, i32 0, i32 0
  %23 = load ptr, ptr %22, align 8, !tbaa !21
  %24 = call ptr @ossl_check_const_X509_NAME_ENTRY_sk_type(ptr noundef %23)
  %25 = load i32, ptr %5, align 4, !tbaa !8
  %26 = call ptr @OPENSSL_sk_value(ptr noundef %24, i32 noundef %25)
  store ptr %26, ptr %3, align 8
  br label %27

27:                                               ; preds = %20, %19
  %28 = load ptr, ptr %3, align 8
  ret ptr %28
}

; Function Attrs: nounwind uwtable
define i32 @X509_NAME_get_index_by_OBJ(ptr noundef %0, ptr noundef %1, i32 noundef %2) #0 {
  %4 = alloca i32, align 4
  %5 = alloca ptr, align 8
  %6 = alloca ptr, align 8
  %7 = alloca i32, align 4
  %8 = alloca i32, align 4
  %9 = alloca ptr, align 8
  %10 = alloca ptr, align 8
  %11 = alloca i32, align 4
  store ptr %0, ptr %5, align 8, !tbaa !3
  store ptr %1, ptr %6, align 8, !tbaa !12
  store i32 %2, ptr %7, align 4, !tbaa !8
  call void @llvm.lifetime.start.p0(i64 4, ptr %8) #6
  call void @llvm.lifetime.start.p0(i64 8, ptr %9) #6
  call void @llvm.lifetime.start.p0(i64 8, ptr %10) #6
  %12 = load ptr, ptr %5, align 8, !tbaa !3
  %13 = icmp eq ptr %12, null
  br i1 %13, label %14, label %15

14:                                               ; preds = %3
  store i32 -1, ptr %4, align 4
  store i32 1, ptr %11, align 4
  br label %50

15:                                               ; preds = %3
  %16 = load i32, ptr %7, align 4, !tbaa !8
  %17 = icmp slt i32 %16, 0
  br i1 %17, label %18, label %19

18:                                               ; preds = %15
  store i32 -1, ptr %7, align 4, !tbaa !8
  br label %19

19:                                               ; preds = %18, %15
  %20 = load ptr, ptr %5, align 8, !tbaa !3
  %21 = getelementptr inbounds nuw %struct.X509_name_st, ptr %20, i32 0, i32 0
  %22 = load ptr, ptr %21, align 8, !tbaa !21
  store ptr %22, ptr %10, align 8, !tbaa !25
  %23 = load ptr, ptr %10, align 8, !tbaa !25
  %24 = call ptr @ossl_check_const_X509_NAME_ENTRY_sk_type(ptr noundef %23)
  %25 = call i32 @OPENSSL_sk_num(ptr noundef %24)
  store i32 %25, ptr %8, align 4, !tbaa !8
  %26 = load i32, ptr %7, align 4, !tbaa !8
  %27 = add nsw i32 %26, 1
  store i32 %27, ptr %7, align 4, !tbaa !8
  br label %28

28:                                               ; preds = %46, %19
  %29 = load i32, ptr %7, align 4, !tbaa !8
  %30 = load i32, ptr %8, align 4, !tbaa !8
  %31 = icmp slt i32 %29, %30
  br i1 %31, label %32, label %49

32:                                               ; preds = %28
  %33 = load ptr, ptr %10, align 8, !tbaa !25
  %34 = call ptr @ossl_check_const_X509_NAME_ENTRY_sk_type(ptr noundef %33)
  %35 = load i32, ptr %7, align 4, !tbaa !8
  %36 = call ptr @OPENSSL_sk_value(ptr noundef %34, i32 noundef %35)
  store ptr %36, ptr %9, align 8, !tbaa !26
  %37 = load ptr, ptr %9, align 8, !tbaa !26
  %38 = getelementptr inbounds nuw %struct.X509_name_entry_st, ptr %37, i32 0, i32 0
  %39 = load ptr, ptr %38, align 8, !tbaa !28
  %40 = load ptr, ptr %6, align 8, !tbaa !12
  %41 = call i32 @OBJ_cmp(ptr noundef %39, ptr noundef %40)
  %42 = icmp eq i32 %41, 0
  br i1 %42, label %43, label %45

43:                                               ; preds = %32
  %44 = load i32, ptr %7, align 4, !tbaa !8
  store i32 %44, ptr %4, align 4
  store i32 1, ptr %11, align 4
  br label %50

45:                                               ; preds = %32
  br label %46

46:                                               ; preds = %45
  %47 = load i32, ptr %7, align 4, !tbaa !8
  %48 = add nsw i32 %47, 1
  store i32 %48, ptr %7, align 4, !tbaa !8
  br label %28, !llvm.loop !30

49:                                               ; preds = %28
  store i32 -1, ptr %4, align 4
  store i32 1, ptr %11, align 4
  br label %50

50:                                               ; preds = %49, %43, %14
  call void @llvm.lifetime.end.p0(i64 8, ptr %10) #6
  call void @llvm.lifetime.end.p0(i64 8, ptr %9) #6
  call void @llvm.lifetime.end.p0(i64 4, ptr %8) #6
  %51 = load i32, ptr %4, align 4
  ret i32 %51
}

; Function Attrs: nounwind uwtable
define i32 @X509_NAME_get_text_by_OBJ(ptr noundef %0, ptr noundef %1, ptr noundef %2, i32 noundef %3) #0 {
  %5 = alloca i32, align 4
  %6 = alloca ptr, align 8
  %7 = alloca ptr, align 8
  %8 = alloca ptr, align 8
  %9 = alloca i32, align 4
  %10 = alloca i32, align 4
  %11 = alloca ptr, align 8
  %12 = alloca i32, align 4
  store ptr %0, ptr %6, align 8, !tbaa !3
  store ptr %1, ptr %7, align 8, !tbaa !12
  store ptr %2, ptr %8, align 8, !tbaa !10
  store i32 %3, ptr %9, align 4, !tbaa !8
  call void @llvm.lifetime.start.p0(i64 4, ptr %10) #6
  call void @llvm.lifetime.start.p0(i64 8, ptr %11) #6
  %13 = load ptr, ptr %6, align 8, !tbaa !3
  %14 = load ptr, ptr %7, align 8, !tbaa !12
  %15 = call i32 @X509_NAME_get_index_by_OBJ(ptr noundef %13, ptr noundef %14, i32 noundef -1)
  store i32 %15, ptr %10, align 4, !tbaa !8
  %16 = load i32, ptr %10, align 4, !tbaa !8
  %17 = icmp slt i32 %16, 0
  br i1 %17, label %18, label %19

18:                                               ; preds = %4
  store i32 -1, ptr %5, align 4
  store i32 1, ptr %12, align 4
  br label %61

19:                                               ; preds = %4
  %20 = load ptr, ptr %6, align 8, !tbaa !3
  %21 = load i32, ptr %10, align 4, !tbaa !8
  %22 = call ptr @X509_NAME_get_entry(ptr noundef %20, i32 noundef %21)
  %23 = call ptr @X509_NAME_ENTRY_get_data(ptr noundef %22)
  store ptr %23, ptr %11, align 8, !tbaa !14
  %24 = load ptr, ptr %8, align 8, !tbaa !10
  %25 = icmp eq ptr %24, null
  br i1 %25, label %26, label %30

26:                                               ; preds = %19
  %27 = load ptr, ptr %11, align 8, !tbaa !14
  %28 = getelementptr inbounds nuw %struct.asn1_string_st, ptr %27, i32 0, i32 0
  %29 = load i32, ptr %28, align 8, !tbaa !16
  store i32 %29, ptr %5, align 4
  store i32 1, ptr %12, align 4
  br label %61

30:                                               ; preds = %19
  %31 = load i32, ptr %9, align 4, !tbaa !8
  %32 = icmp sle i32 %31, 0
  br i1 %32, label %33, label %34

33:                                               ; preds = %30
  store i32 0, ptr %5, align 4
  store i32 1, ptr %12, align 4
  br label %61

34:                                               ; preds = %30
  %35 = load ptr, ptr %11, align 8, !tbaa !14
  %36 = getelementptr inbounds nuw %struct.asn1_string_st, ptr %35, i32 0, i32 0
  %37 = load i32, ptr %36, align 8, !tbaa !16
  %38 = load i32, ptr %9, align 4, !tbaa !8
  %39 = sub nsw i32 %38, 1
  %40 = icmp sgt i32 %37, %39
  br i1 %40, label %41, label %44

41:                                               ; preds = %34
  %42 = load i32, ptr %9, align 4, !tbaa !8
  %43 = sub nsw i32 %42, 1
  br label %48

44:                                               ; preds = %34
  %45 = load ptr, ptr %11, align 8, !tbaa !14
  %46 = getelementptr inbounds nuw %struct.asn1_string_st, ptr %45, i32 0, i32 0
  %47 = load i32, ptr %46, align 8, !tbaa !16
  br label %48

48:                                               ; preds = %44, %41
  %49 = phi i32 [ %43, %41 ], [ %47, %44 ]
  store i32 %49, ptr %10, align 4, !tbaa !8
  %50 = load ptr, ptr %8, align 8, !tbaa !10
  %51 = load ptr, ptr %11, align 8, !tbaa !14
  %52 = getelementptr inbounds nuw %struct.asn1_string_st, ptr %51, i32 0, i32 2
  %53 = load ptr, ptr %52, align 8, !tbaa !19
  %54 = load i32, ptr %10, align 4, !tbaa !8
  %55 = sext i32 %54 to i64
  call void @llvm.memcpy.p0.p0.i64(ptr align 1 %50, ptr align 1 %53, i64 %55, i1 false)
  %56 = load ptr, ptr %8, align 8, !tbaa !10
  %57 = load i32, ptr %10, align 4, !tbaa !8
  %58 = sext i32 %57 to i64
  %59 = getelementptr inbounds i8, ptr %56, i64 %58
  store i8 0, ptr %59, align 1, !tbaa !20
  %60 = load i32, ptr %10, align 4, !tbaa !8
  store i32 %60, ptr %5, align 4
  store i32 1, ptr %12, align 4
  br label %61

61:                                               ; preds = %48, %33, %26, %18
  call void @llvm.lifetime.end.p0(i64 8, ptr %11) #6
  call void @llvm.lifetime.end.p0(i64 4, ptr %10) #6
  %62 = load i32, ptr %5, align 4
  ret i32 %62
}