; Function Attrs: nounwind uwtable
define i32 @X509_NAME_get_text_by_OBJ(ptr noundef readonly captures(address_is_null) %0, ptr noundef %1, ptr noundef writeonly captures(address_is_null) %2, i32 noundef %3) local_unnamed_addr #0 {
  %5 = icmp eq ptr %0, null
  br i1 %5, label %X509_NAME_get_index_by_OBJ.exit.thread, label %6

6:                                                ; preds = %4
  %7 = load ptr, ptr %0, align 8, !tbaa !3
  %8 = tail call i32 @OPENSSL_sk_num(ptr noundef %7) #6
  %smax = tail call i32 @llvm.smax.i32(i32 %8, i32 0)
  %9 = add nsw i32 %smax, -1
  br label %10

10:                                               ; preds = %11, %6
  %.013.in.i = phi i32 [ -1, %6 ], [ %.013.i, %11 ]
  %exitcond.not = icmp eq i32 %.013.in.i, %9
  br i1 %exitcond.not, label %X509_NAME_get_index_by_OBJ.exit.thread, label %11

11:                                               ; preds = %10
  %.013.i = add nsw i32 %.013.in.i, 1
  %12 = tail call ptr @OPENSSL_sk_value(ptr noundef %7, i32 noundef %.013.i) #6
  %13 = load ptr, ptr %12, align 8, !tbaa !12
  %14 = tail call i32 @OBJ_cmp(ptr noundef %13, ptr noundef %1) #6
  %15 = icmp eq i32 %14, 0
  br i1 %15, label %X509_NAME_get_index_by_OBJ.exit, label %10, !llvm.loop !16

X509_NAME_get_index_by_OBJ.exit:                  ; preds = %11
  %16 = icmp slt i32 %.013.in.i, -1
  br i1 %16, label %X509_NAME_get_index_by_OBJ.exit.thread, label %17

17:                                               ; preds = %X509_NAME_get_index_by_OBJ.exit
  %18 = load ptr, ptr %0, align 8, !tbaa !3
  %19 = tail call i32 @OPENSSL_sk_num(ptr noundef %18) #6
  %.not27 = icmp sgt i32 %19, %.013.i
  br i1 %.not27, label %X509_NAME_get_entry.exit, label %X509_NAME_ENTRY_get_data.exit

X509_NAME_get_entry.exit:                         ; preds = %17
  %20 = load ptr, ptr %0, align 8, !tbaa !3
  %21 = tail call ptr @OPENSSL_sk_value(ptr noundef %20, i32 noundef %.013.i) #6
  %22 = icmp eq ptr %21, null
  br i1 %22, label %X509_NAME_ENTRY_get_data.exit, label %23

23:                                               ; preds = %X509_NAME_get_entry.exit
  %24 = getelementptr inbounds nuw i8, ptr %21, i64 8
  %25 = load ptr, ptr %24, align 8, !tbaa !18
  br label %X509_NAME_ENTRY_get_data.exit

X509_NAME_ENTRY_get_data.exit:                    ; preds = %17, %X509_NAME_get_entry.exit, %23
  %.0.i24 = phi ptr [ %25, %23 ], [ null, %X509_NAME_get_entry.exit ], [ null, %17 ]
  %26 = icmp eq ptr %2, null
  br i1 %26, label %27, label %29

27:                                               ; preds = %X509_NAME_ENTRY_get_data.exit
  %28 = load i32, ptr %.0.i24, align 8, !tbaa !19
  br label %X509_NAME_get_index_by_OBJ.exit.thread

29:                                               ; preds = %X509_NAME_ENTRY_get_data.exit
  %30 = icmp slt i32 %3, 1
  br i1 %30, label %X509_NAME_get_index_by_OBJ.exit.thread, label %31

31:                                               ; preds = %29
  %32 = load i32, ptr %.0.i24, align 8, !tbaa !19
  %.not = icmp slt i32 %32, %3
  %33 = add nsw i32 %3, -1
  %34 = select i1 %.not, i32 %32, i32 %33
  %35 = getelementptr inbounds nuw i8, ptr %.0.i24, i64 8
  %36 = load ptr, ptr %35, align 8, !tbaa !22
  %37 = sext i32 %34 to i64
  tail call void @llvm.memcpy.p0.p0.i64(ptr nonnull align 1 %2, ptr align 1 %36, i64 %37, i1 false)
  %38 = getelementptr inbounds i8, ptr %2, i64 %37
  store i8 0, ptr %38, align 1, !tbaa !23
  br label %X509_NAME_get_index_by_OBJ.exit.thread

X509_NAME_get_index_by_OBJ.exit.thread:           ; preds = %10, %4, %29, %X509_NAME_get_index_by_OBJ.exit, %31, %27
  %.0 = phi i32 [ %28, %27 ], [ %34, %31 ], [ -1, %X509_NAME_get_index_by_OBJ.exit ], [ 0, %29 ], [ -1, %4 ], [ -1, %10 ]
  ret i32 %.0
}